#include <math.h>
#include <stdio.h>
#include <stdlib.h>
#include <string.h>
#include <iostream>
using namespace std;

int main()              
{
    char str[500]={' '};              
    cin >> str;                       
    int len=strlen(str);
    int i,j,k;
    int m;
    float leap;
    for (i=2;i<=len;i++)
    {
       if (i%2==0)  {leap=0.5;}
       else {leap=0;}
                   for (j=0;j<=len-i;j++)        
            {
                m=1;
                for (k=j;k<j+(i-1)/2+leap;k++)
                {
                    if (str[k]!=str[2*j+i-1-k])
                    {
                        m=0;
                        break;
                    }
                }
                if (m==1)
                {
                    for (k=j;k<=j+i-1;k++)
                    {
                        cout << str[k];
                    }
                    cout << endl;
                }
            
        }
    }

    return 0;
}
